; Function Attrs: mustprogress nofree nounwind willreturn memory(read) uwtable
define hidden noundef zeroext i1 @_ZNK5osgeo4proj8metadata21GeographicBoundingBox10intersectsERKN7dropbox6oxygen2nnISt10shared_ptrINS1_16GeographicExtentEEEE(ptr nocapture noundef nonnull readonly align 8 dereferenceable(40) %0, ptr nocapture noundef nonnull readonly align 8 dereferenceable(16) %1) unnamed_addr #11 align 2 {
  %3 = load ptr, ptr %1, align 8
  %4 = icmp eq ptr %3, null
  br i1 %4, label %.thread, label %5

5:                                                ; preds = %2
  %6 = tail call ptr @__dynamic_cast(ptr nonnull %3, ptr nonnull @_ZTIN5osgeo4proj8metadata16GeographicExtentE, ptr nonnull @_ZTIN5osgeo4proj8metadata21GeographicBoundingBoxE, i64 0) #28
  %.not = icmp eq ptr %6, null
  br i1 %.not, label %.thread, label %7

7:                                                ; preds = %5
  %8 = getelementptr inbounds i8, ptr %0, i64 32
  %9 = load ptr, ptr %8, align 8
  %10 = getelementptr inbounds i8, ptr %6, i64 32
  %11 = load ptr, ptr %10, align 8
  %12 = tail call noundef zeroext i1 @_ZNK5osgeo4proj8metadata21GeographicBoundingBox7Private10intersectsERKS3_(ptr noundef nonnull align 8 dereferenceable(32) %9, ptr noundef nonnull align 8 dereferenceable(32) %11)
  br label %.thread

.thread:                                          ; preds = %2, %5, %7
  %.0 = phi i1 [ %12, %7 ], [ false, %5 ], [ false, %2 ]
  ret i1 %.0
}